; Function Attrs: mustprogress nounwind uwtable
define dso_local void @_ZN5clang12OverloadExprC2ENS_4Stmt9StmtClassENS1_10EmptyShellEjb(ptr noundef nonnull align 8 captures(none) dereferenceable(56) initializes((0, 1), (4, 28), (32, 56)) %0, i32 noundef %1, i32 noundef %2, i1 noundef zeroext %3) unnamed_addr #4 align 2 {
  %5 = trunc i32 %1 to i8
  store i8 %5, ptr %0, align 8
  %6 = load i8, ptr @_ZN5clang4Stmt17StatisticsEnabledE, align 1
  %7 = trunc i8 %6 to i1
  br i1 %7, label %8, label %_ZN5clang4ExprC2ENS_4Stmt9StmtClassENS1_10EmptyShellE.exit

8:                                                ; preds = %4
  tail call void @_ZN5clang4Stmt12addStmtClassENS0_9StmtClassE(i32 noundef %1) #16
  br label %_ZN5clang4ExprC2ENS_4Stmt9StmtClassENS1_10EmptyShellE.exit

_ZN5clang4ExprC2ENS_4Stmt9StmtClassENS1_10EmptyShellE.exit: ; preds = %4, %8
  %9 = getelementptr inbounds nuw i8, ptr %0, i64 8
  %10 = getelementptr inbounds nuw i8, ptr %0, i64 32
  %11 = getelementptr inbounds nuw i8, ptr %0, i64 4
  tail call void @llvm.memset.p0.i64(ptr noundef nonnull align 8 dereferenceable(20) %9, i8 0, i64 20, i1 false)
  tail call void @llvm.memset.p0.i64(ptr noundef nonnull align 8 dereferenceable(24) %10, i8 0, i64 24, i1 false)
  store i32 %2, ptr %11, align 4
  %12 = load i32, ptr %0, align 8
  %13 = select i1 %3, i32 262144, i32 0
  %14 = and i32 %12, -262145
  %15 = or disjoint i32 %14, %13
  store i32 %15, ptr %0, align 8
  ret void
}